target datalayout = "e-m:e-p270:32:32-p271:32:32-p272:64:64-i64:64-i128:128-f80:128-n8:16:32:64-S128"
target triple = "x86_64-pc-linux-gnu"

; Function Attrs: inlinehint mustprogress nounwind uwtable
define internal noundef zeroext i1 @_ZN6icu_7712_GLOBAL__N_113civilLeapYearEi(i32 noundef %0) #4 {
  %2 = alloca i32, align 4
  store i32 %0, ptr %2, align 4, !tbaa !17
  %3 = load i32, ptr %2, align 4, !tbaa !17
  %4 = mul nsw i32 11, %3
  %5 = add nsw i32 14, %4
  %6 = srem i32 %5, 30
  %7 = icmp slt i32 %6, 11
  ret i1 %7
}

; Function Attrs: mustprogress uwtable
define noundef i32 @_ZNK6icu_7720IslamicCivilCalendar20handleGetMonthLengthEiiR10UErrorCode(ptr noundef nonnull align 8 dereferenceable(192) %0, i32 noundef %1, i32 noundef %2, ptr noundef nonnull align 4 dereferenceable(4) %3) unnamed_addr #1 align 2 {
  %5 = alloca ptr, align 8
  %6 = alloca i32, align 4
  %7 = alloca i32, align 4
  %8 = alloca ptr, align 8
  %9 = alloca i32, align 4
  store ptr %0, ptr %5, align 8, !tbaa !43
  store i32 %1, ptr %6, align 4, !tbaa !17
  store i32 %2, ptr %7, align 4, !tbaa !17
  store ptr %3, ptr %8, align 8, !tbaa !12
  call void @llvm.lifetime.start.p0(i64 4, ptr %9) #8
  %10 = load i32, ptr %7, align 4, !tbaa !17
  %11 = add nsw i32 %10, 1
  %12 = srem i32 %11, 2
  %13 = add nsw i32 29, %12
  store i32 %13, ptr %9, align 4, !tbaa !17
  %14 = load i32, ptr %7, align 4, !tbaa !17
  %15 = icmp eq i32 %14, 11
  br i1 %15, label %16, label %22

16:                                               ; preds = %4
  %17 = load i32, ptr %6, align 4, !tbaa !17
  %18 = call noundef zeroext i1 @_ZN6icu_7712_GLOBAL__N_113civilLeapYearEi(i32 noundef %17)
  br i1 %18, label %19, label %22

19:                                               ; preds = %16
  %20 = load i32, ptr %9, align 4, !tbaa !17
  %21 = add nsw i32 %20, 1
  store i32 %21, ptr %9, align 4, !tbaa !17
  br label %22

22:                                               ; preds = %19, %16, %4
  %23 = load i32, ptr %9, align 4, !tbaa !17
  call void @llvm.lifetime.end.p0(i64 4, ptr %9) #8
  ret i32 %23
}

; Function Attrs: mustprogress uwtable
define noundef i32 @_ZNK6icu_7723IslamicUmalquraCalendar20handleGetMonthLengthEiiR10UErrorCode(ptr noundef nonnull align 8 dereferenceable(192) %0, i32 noundef %1, i32 noundef %2, ptr noundef nonnull align 4 dereferenceable(4) %3) unnamed_addr #1 align 2 {
  %5 = alloca i32, align 4
  %6 = alloca ptr, align 8
  %7 = alloca i32, align 4
  %8 = alloca i32, align 4
  %9 = alloca ptr, align 8
  %10 = alloca i32, align 4
  %11 = alloca i32, align 4
  %12 = alloca i32, align 4
  store ptr %0, ptr %6, align 8, !tbaa !47
  store i32 %1, ptr %7, align 4, !tbaa !17
  store i32 %2, ptr %8, align 4, !tbaa !17
  store ptr %3, ptr %9, align 8, !tbaa !12
  %13 = load ptr, ptr %6, align 8
  %14 = load i32, ptr %7, align 4, !tbaa !17
  %15 = icmp slt i32 %14, 1300
  br i1 %15, label %19, label %16

16:                                               ; preds = %4
  %17 = load i32, ptr %7, align 4, !tbaa !17
  %18 = icmp sgt i32 %17, 1600
  br i1 %18, label %19, label %24

19:                                               ; preds = %16, %4
  %20 = load i32, ptr %7, align 4, !tbaa !17
  %21 = load i32, ptr %8, align 4, !tbaa !17
  %22 = load ptr, ptr %9, align 8, !tbaa !12
  %23 = call noundef i32 @_ZNK6icu_7720IslamicCivilCalendar20handleGetMonthLengthEiiR10UErrorCode(ptr noundef nonnull align 8 dereferenceable(192) %13, i32 noundef %20, i32 noundef %21, ptr noundef nonnull align 4 dereferenceable(4) %22)
  store i32 %23, ptr %5, align 4
  br label %42

24:                                               ; preds = %16
  call void @llvm.lifetime.start.p0(i64 4, ptr %10) #8
  store i32 29, ptr %10, align 4, !tbaa !17
  call void @llvm.lifetime.start.p0(i64 4, ptr %11) #8
  %25 = load i32, ptr %8, align 4, !tbaa !17
  %26 = sub nsw i32 11, %25
  %27 = shl i32 1, %26
  store i32 %27, ptr %11, align 4, !tbaa !17
  call void @llvm.lifetime.start.p0(i64 4, ptr %12) #8
  %28 = load i32, ptr %7, align 4, !tbaa !17
  %29 = sub nsw i32 %28, 1300
  store i32 %29, ptr %12, align 4, !tbaa !17
  %30 = load i32, ptr %12, align 4, !tbaa !17
  %31 = sext i32 %30 to i64
  %32 = getelementptr inbounds [301 x i32], ptr @_ZN6icu_77L20UMALQURA_MONTHLENGTHE, i64 0, i64 %31
  %33 = load i32, ptr %32, align 4, !tbaa !17
  %34 = load i32, ptr %11, align 4, !tbaa !17
  %35 = and i32 %33, %34
  %36 = icmp ne i32 %35, 0
  br i1 %36, label %37, label %40

37:                                               ; preds = %24
  %38 = load i32, ptr %10, align 4, !tbaa !17
  %39 = add nsw i32 %38, 1
  store i32 %39, ptr %10, align 4, !tbaa !17
  br label %40

40:                                               ; preds = %37, %24
  %41 = load i32, ptr %10, align 4, !tbaa !17
  store i32 %41, ptr %5, align 4
  call void @llvm.lifetime.end.p0(i64 4, ptr %12) #8
  call void @llvm.lifetime.end.p0(i64 4, ptr %11) #8
  call void @llvm.lifetime.end.p0(i64 4, ptr %10) #8
  br label %42

42:                                               ; preds = %40, %19
  %43 = load i32, ptr %5, align 4
  ret i32 %43
}