; Function Attrs: mustprogress nofree norecurse nosync nounwind willreturn memory(none) uwtable
define noundef range(i32 28, 31) i32 @_ZNK6icu_7723IslamicUmalquraCalendar20handleGetMonthLengthEiiR10UErrorCode(ptr nonnull readnone align 8 captures(none) %0, i32 noundef %1, i32 noundef %2, ptr nonnull readnone align 4 captures(none) %3) unnamed_addr #0 align 2 {
  %5 = add i32 %1, -1601
  %or.cond = icmp ult i32 %5, -301
  br i1 %or.cond, label %6, label %16

6:                                                ; preds = %4
  %7 = add nsw i32 %2, 1
  %8 = srem i32 %7, 2
  %9 = add nsw i32 %8, 29
  %10 = icmp eq i32 %2, 11
  br i1 %10, label %11, label %_ZNK6icu_7720IslamicCivilCalendar20handleGetMonthLengthEiiR10UErrorCode.exit

11:                                               ; preds = %6
  %12 = mul nsw i32 %1, 11
  %13 = add nsw i32 %12, 14
  %14 = srem i32 %13, 30
  %15 = icmp slt i32 %14, 11
  %spec.select.i = select i1 %15, i32 30, i32 %9
  br label %_ZNK6icu_7720IslamicCivilCalendar20handleGetMonthLengthEiiR10UErrorCode.exit

16:                                               ; preds = %4
  %17 = sub nsw i32 11, %2
  %18 = shl nuw i32 1, %17
  %19 = add nsw i32 %1, -1300
  %20 = zext nneg i32 %19 to i64
  %21 = getelementptr inbounds nuw [301 x i32], ptr @_ZN6icu_77L20UMALQURA_MONTHLENGTHE, i64 0, i64 %20
  %22 = load i32, ptr %21, align 4, !tbaa !6
  %23 = and i32 %22, %18
  %.not = icmp eq i32 %23, 0
  %spec.select = select i1 %.not, i32 29, i32 30
  br label %_ZNK6icu_7720IslamicCivilCalendar20handleGetMonthLengthEiiR10UErrorCode.exit

_ZNK6icu_7720IslamicCivilCalendar20handleGetMonthLengthEiiR10UErrorCode.exit: ; preds = %11, %6, %16
  %.0 = phi i32 [ %spec.select, %16 ], [ %9, %6 ], [ %spec.select.i, %11 ]
  ret i32 %.0
}